target datalayout = "e-m:e-p270:32:32-p271:32:32-p272:64:64-i64:64-i128:128-f80:128-n8:16:32:64-S128"
target triple = "x86_64-pc-linux-gnu"

%struct.slurmdb_used_limits_t = type { i32, ptr, i32, i32, ptr, ptr, ptr, ptr, i32 }

; Function Attrs: nounwind uwtable
define dso_local void @slurmdb_destroy_used_limits(ptr noundef %0) #0 {
  %2 = alloca ptr, align 8
  %3 = alloca ptr, align 8
  store ptr %0, ptr %2, align 8
  call void @llvm.lifetime.start.p0(i64 8, ptr %3) #10
  %4 = load ptr, ptr %2, align 8
  store ptr %4, ptr %3, align 8
  %5 = load ptr, ptr %3, align 8
  %6 = icmp ne ptr %5, null
  br i1 %6, label %7, label %29

7:                                                ; preds = %1
  %8 = load ptr, ptr %3, align 8
  %9 = getelementptr inbounds nuw %struct.slurmdb_used_limits_t, ptr %8, i32 0, i32 1
  call void @slurm_xfree(ptr noundef %9)
  br label %10

10:                                               ; preds = %7
  %11 = load ptr, ptr %3, align 8
  %12 = getelementptr inbounds nuw %struct.slurmdb_used_limits_t, ptr %11, i32 0, i32 6
  %13 = load ptr, ptr %12, align 8
  %14 = icmp ne ptr %13, null
  br i1 %14, label %15, label %18

15:                                               ; preds = %10
  %16 = load ptr, ptr %3, align 8
  %17 = getelementptr inbounds nuw %struct.slurmdb_used_limits_t, ptr %16, i32 0, i32 6
  call void @slurm_bit_free(ptr noundef %17)
  br label %18

18:                                               ; preds = %15, %10
  %19 = load ptr, ptr %3, align 8
  %20 = getelementptr inbounds nuw %struct.slurmdb_used_limits_t, ptr %19, i32 0, i32 6
  store ptr null, ptr %20, align 8
  br label %21

21:                                               ; preds = %18
  br label %22

22:                                               ; preds = %21
  %23 = load ptr, ptr %3, align 8
  %24 = getelementptr inbounds nuw %struct.slurmdb_used_limits_t, ptr %23, i32 0, i32 7
  call void @slurm_xfree(ptr noundef %24)
  %25 = load ptr, ptr %3, align 8
  %26 = getelementptr inbounds nuw %struct.slurmdb_used_limits_t, ptr %25, i32 0, i32 4
  call void @slurm_xfree(ptr noundef %26)
  %27 = load ptr, ptr %3, align 8
  %28 = getelementptr inbounds nuw %struct.slurmdb_used_limits_t, ptr %27, i32 0, i32 5
  call void @slurm_xfree(ptr noundef %28)
  call void @slurm_xfree(ptr noundef %3)
  br label %29

29:                                               ; preds = %22, %1
  call void @llvm.lifetime.end.p0(i64 8, ptr %3) #10
  ret void
}